; Function Attrs: mustprogress uwtable
define void @_ZN6icu_776number4impl6DecNum8divideByERKS2_R10UErrorCode(ptr noundef nonnull align 8 dereferenceable(92) %0, ptr noundef nonnull readonly align 8 captures(none) dereferenceable(92) %1, ptr noundef nonnull writeonly align 4 captures(none) dereferenceable(4) %2) local_unnamed_addr #1 align 2 {
  %4 = load ptr, ptr %0, align 8, !tbaa !24
  %5 = load ptr, ptr %1, align 8, !tbaa !24
  %6 = getelementptr inbounds nuw i8, ptr %0, i64 64
  %7 = tail call ptr @uprv_decNumberDivide_77(ptr noundef %4, ptr noundef %4, ptr noundef %5, ptr noundef nonnull %6)
  %8 = getelementptr inbounds nuw i8, ptr %0, i64 84
  %9 = load i32, ptr %8, align 4, !tbaa !36
  %10 = and i32 %9, 32
  %.not = icmp ne i32 %10, 0
  %.not3 = icmp eq i32 %9, 0
  %or.cond = or i1 %.not3, %.not
  br i1 %or.cond, label %12, label %11

11:                                               ; preds = %3
  store i32 5, ptr %2, align 4, !tbaa !13
  br label %12

12:                                               ; preds = %11, %3
  ret void
}